target datalayout = "e-m:e-p270:32:32-p271:32:32-p272:64:64-i64:64-i128:128-f80:128-n8:16:32:64-S128"
target triple = "x86_64-pc-linux-gnu"

%struct.lxb_html_tree = type { ptr, ptr, ptr, ptr, ptr, ptr, ptr, %struct.lxb_html_tree_pending_table_t, ptr, i8, i8, i8, i8, i8, i8, ptr, ptr, ptr, i32, i64 }
%struct.lxb_html_tree_pending_table_t = type { ptr, i8 }
%struct.lxb_dom_node = type { %struct.lxb_dom_event_target, i64, i64, i64, ptr, ptr, ptr, ptr, ptr, ptr, ptr, i32, i64 }
%struct.lxb_dom_event_target = type { ptr }
%struct.lexbor_array_t = type { ptr, i64, i64 }

; Function Attrs: nounwind uwtable
define hidden zeroext i1 @lxb_html_tree_check_scope_element(ptr noundef %0) #0 {
  %2 = alloca i1, align 1
  %3 = alloca ptr, align 8
  %4 = alloca ptr, align 8
  %5 = alloca i64, align 8
  store ptr %0, ptr %3, align 8
  store i64 0, ptr %5, align 8
  br label %6

6:                                                ; preds = %29, %1
  %7 = load i64, ptr %5, align 8
  %8 = load ptr, ptr %3, align 8
  %9 = getelementptr inbounds %struct.lxb_html_tree, ptr %8, i32 0, i32 4
  %10 = load ptr, ptr %9, align 8
  %11 = getelementptr inbounds %struct.lexbor_array_t, ptr %10, i32 0, i32 2
  %12 = load i64, ptr %11, align 8
  %13 = icmp ult i64 %7, %12
  br i1 %13, label %14, label %32

14:                                               ; preds = %6
  %15 = load ptr, ptr %3, align 8
  %16 = getelementptr inbounds %struct.lxb_html_tree, ptr %15, i32 0, i32 4
  %17 = load ptr, ptr %16, align 8
  %18 = getelementptr inbounds %struct.lexbor_array_t, ptr %17, i32 0, i32 0
  %19 = load ptr, ptr %18, align 8
  %20 = load i64, ptr %5, align 8
  %21 = getelementptr inbounds ptr, ptr %19, i64 %20
  %22 = load ptr, ptr %21, align 8
  store ptr %22, ptr %4, align 8
  %23 = load ptr, ptr %4, align 8
  %24 = getelementptr inbounds %struct.lxb_dom_node, ptr %23, i32 0, i32 1
  %25 = load i64, ptr %24, align 8
  switch i64 %25, label %27 [
    i64 44, label %26
    i64 53, label %26
    i64 113, label %26
    i64 142, label %26
    i64 143, label %26
    i64 145, label %26
    i64 154, label %26
    i64 155, label %26
    i64 156, label %26
    i64 157, label %26
    i64 177, label %26
    i64 178, label %26
    i64 182, label %26
    i64 183, label %26
    i64 184, label %26
    i64 187, label %26
    i64 31, label %26
    i64 101, label %26
  ]

26:                                               ; preds = %14, %14, %14, %14, %14, %14, %14, %14, %14, %14, %14, %14, %14, %14, %14, %14, %14, %14
  store i1 true, ptr %2, align 1
  br label %33

27:                                               ; preds = %14
  br label %28

28:                                               ; preds = %27
  br label %29

29:                                               ; preds = %28
  %30 = load i64, ptr %5, align 8
  %31 = add i64 %30, 1
  store i64 %31, ptr %5, align 8
  br label %6

32:                                               ; preds = %6
  store i1 false, ptr %2, align 1
  br label %33

33:                                               ; preds = %32, %26
  %34 = load i1, ptr %2, align 1
  ret i1 %34
}